target datalayout = "e-m:e-p270:32:32-p271:32:32-p272:64:64-i64:64-i128:128-f80:128-n8:16:32:64-S128"
target triple = "x86_64-pc-linux-gnu"

%struct.AVFormatContext = type { ptr, ptr, ptr, ptr, ptr, i32, i32, ptr, i32, ptr, i32, ptr, ptr, i64, i64, i64, i32, i32, i32, i64, i64, ptr, i32, i32, ptr, i32, i32, i32, i32, ptr, i64, i32, i32, %struct.AVIOInterruptCB, i32, i32, i32, i32, i64, i32, i32, i32, i32, i32, i32, i32, i32, i32, i32, i32, i32, i64, i32, i32, i32, i32, i32, ptr, ptr, ptr, ptr, i32, ptr, ptr, ptr, ptr, i32, ptr, ptr, i64, ptr, ptr, ptr, i64 }
%struct.AVIOInterruptCB = type { ptr, ptr }
%struct.AUDMuxContext = type { i32, i32 }
%struct.AVStream = type { ptr, i32, i32, ptr, ptr, %struct.AVRational, i64, i64, i64, i32, i32, %struct.AVRational, ptr, %struct.AVRational, %struct.AVPacket, i32, %struct.AVRational, i32 }
%struct.AVPacket = type { ptr, i64, i64, ptr, i32, i32, i32, ptr, i32, i64, i64, ptr, ptr, %struct.AVRational }
%struct.AVRational = type { i32, i32 }
%struct.AVCodecParameters = type { i32, i32, i32, ptr, i32, ptr, i32, i32, i64, i32, i32, i32, i32, i32, i32, %struct.AVRational, %struct.AVRational, i32, i32, i32, i32, i32, i32, i32, %struct.AVChannelLayout, i32, i32, i32, i32, i32, i32 }
%struct.AVChannelLayout = type { i32, i32, %union.anon, ptr }
%union.anon = type { i64 }

; Function Attrs: nounwind uwtable
define internal i32 @wsaud_write_header(ptr noundef %0) #0 {
  %2 = alloca ptr, align 8
  %3 = alloca ptr, align 8
  %4 = alloca ptr, align 8
  %5 = alloca ptr, align 8
  %6 = alloca i8, align 1
  store ptr %0, ptr %2, align 8, !tbaa !4
  call void @llvm.lifetime.start.p0(i64 8, ptr %3) #3
  %7 = load ptr, ptr %2, align 8, !tbaa !4
  %8 = getelementptr inbounds nuw %struct.AVFormatContext, ptr %7, i32 0, i32 7
  %9 = load ptr, ptr %8, align 8, !tbaa !9
  %10 = getelementptr inbounds ptr, ptr %9, i64 0
  %11 = load ptr, ptr %10, align 8, !tbaa !26
  store ptr %11, ptr %3, align 8, !tbaa !26
  call void @llvm.lifetime.start.p0(i64 8, ptr %4) #3
  %12 = load ptr, ptr %2, align 8, !tbaa !4
  %13 = getelementptr inbounds nuw %struct.AVFormatContext, ptr %12, i32 0, i32 4
  %14 = load ptr, ptr %13, align 8, !tbaa !28
  store ptr %14, ptr %4, align 8, !tbaa !29
  call void @llvm.lifetime.start.p0(i64 8, ptr %5) #3
  %15 = load ptr, ptr %2, align 8, !tbaa !4
  %16 = getelementptr inbounds nuw %struct.AVFormatContext, ptr %15, i32 0, i32 3
  %17 = load ptr, ptr %16, align 8, !tbaa !30
  store ptr %17, ptr %5, align 8, !tbaa !31
  call void @llvm.lifetime.start.p0(i64 1, ptr %6) #3
  store i8 0, ptr %6, align 1, !tbaa !33
  %18 = load ptr, ptr %5, align 8, !tbaa !31
  %19 = getelementptr inbounds nuw %struct.AUDMuxContext, ptr %18, i32 0, i32 0
  store i32 0, ptr %19, align 4, !tbaa !34
  %20 = load ptr, ptr %5, align 8, !tbaa !31
  %21 = getelementptr inbounds nuw %struct.AUDMuxContext, ptr %20, i32 0, i32 1
  store i32 0, ptr %21, align 4, !tbaa !36
  %22 = load ptr, ptr %3, align 8, !tbaa !26
  %23 = getelementptr inbounds nuw %struct.AVStream, ptr %22, i32 0, i32 3
  %24 = load ptr, ptr %23, align 8, !tbaa !37
  %25 = getelementptr inbounds nuw %struct.AVCodecParameters, ptr %24, i32 0, i32 24
  %26 = getelementptr inbounds nuw %struct.AVChannelLayout, ptr %25, i32 0, i32 1
  %27 = load i32, ptr %26, align 4, !tbaa !44
  %28 = icmp eq i32 %27, 2
  br i1 %28, label %29, label %34

29:                                               ; preds = %1
  %30 = load i8, ptr %6, align 1, !tbaa !33
  %31 = zext i8 %30 to i32
  %32 = or i32 %31, 1
  %33 = trunc i32 %32 to i8
  store i8 %33, ptr %6, align 1, !tbaa !33
  br label %34

34:                                               ; preds = %29, %1
  %35 = load ptr, ptr %3, align 8, !tbaa !26
  %36 = getelementptr inbounds nuw %struct.AVStream, ptr %35, i32 0, i32 3
  %37 = load ptr, ptr %36, align 8, !tbaa !37
  %38 = getelementptr inbounds nuw %struct.AVCodecParameters, ptr %37, i32 0, i32 1
  %39 = load i32, ptr %38, align 4, !tbaa !47
  %40 = call i32 @av_get_bits_per_sample(i32 noundef %39)
  %41 = icmp eq i32 %40, 4
  br i1 %41, label %42, label %47

42:                                               ; preds = %34
  %43 = load i8, ptr %6, align 1, !tbaa !33
  %44 = zext i8 %43 to i32
  %45 = or i32 %44, 2
  %46 = trunc i32 %45 to i8
  store i8 %46, ptr %6, align 1, !tbaa !33
  br label %47

47:                                               ; preds = %42, %34
  %48 = load ptr, ptr %4, align 8, !tbaa !29
  %49 = load ptr, ptr %3, align 8, !tbaa !26
  %50 = getelementptr inbounds nuw %struct.AVStream, ptr %49, i32 0, i32 3
  %51 = load ptr, ptr %50, align 8, !tbaa !37
  %52 = getelementptr inbounds nuw %struct.AVCodecParameters, ptr %51, i32 0, i32 25
  %53 = load i32, ptr %52, align 8, !tbaa !48
  call void @avio_wl16(ptr noundef %48, i32 noundef %53)
  %54 = load ptr, ptr %4, align 8, !tbaa !29
  call void @ffio_fill(ptr noundef %54, i32 noundef 0, i64 noundef 8)
  %55 = load ptr, ptr %4, align 8, !tbaa !29
  %56 = load i8, ptr %6, align 1, !tbaa !33
  %57 = zext i8 %56 to i32
  call void @avio_w8(ptr noundef %55, i32 noundef %57)
  %58 = load ptr, ptr %4, align 8, !tbaa !29
  call void @avio_w8(ptr noundef %58, i32 noundef 99)
  call void @llvm.lifetime.end.p0(i64 1, ptr %6) #3
  call void @llvm.lifetime.end.p0(i64 8, ptr %5) #3
  call void @llvm.lifetime.end.p0(i64 8, ptr %4) #3
  call void @llvm.lifetime.end.p0(i64 8, ptr %3) #3
  ret i32 0
}