; Function Attrs: nounwind uwtable
define internal noundef i32 @wsaud_write_header(ptr noundef readonly captures(none) %0) #0 {
  %2 = getelementptr inbounds nuw i8, ptr %0, i64 48
  %3 = load ptr, ptr %2, align 8, !tbaa !4
  %4 = load ptr, ptr %3, align 8, !tbaa !24
  %5 = getelementptr inbounds nuw i8, ptr %0, i64 32
  %6 = load ptr, ptr %5, align 8, !tbaa !26
  %7 = getelementptr inbounds nuw i8, ptr %0, i64 24
  %8 = load ptr, ptr %7, align 8, !tbaa !27
  store i32 0, ptr %8, align 4, !tbaa !28
  %9 = getelementptr inbounds nuw i8, ptr %8, i64 4
  store i32 0, ptr %9, align 4, !tbaa !30
  %10 = getelementptr inbounds nuw i8, ptr %4, i64 16
  %11 = load ptr, ptr %10, align 8, !tbaa !31
  %12 = getelementptr inbounds nuw i8, ptr %11, i64 132
  %13 = load i32, ptr %12, align 4, !tbaa !38
  %14 = icmp eq i32 %13, 2
  %spec.select = zext i1 %14 to i8
  %15 = getelementptr inbounds nuw i8, ptr %11, i64 4
  %16 = load i32, ptr %15, align 4, !tbaa !41
  %17 = tail call i32 @av_get_bits_per_sample(i32 noundef %16) #2
  %18 = icmp eq i32 %17, 4
  %19 = or disjoint i8 %spec.select, 2
  %.1 = select i1 %18, i8 %19, i8 %spec.select
  %20 = load ptr, ptr %10, align 8, !tbaa !31
  %21 = getelementptr inbounds nuw i8, ptr %20, i64 152
  %22 = load i32, ptr %21, align 8, !tbaa !42
  tail call void @avio_wl16(ptr noundef %6, i32 noundef %22) #2
  tail call void @ffio_fill(ptr noundef %6, i32 noundef 0, i64 noundef 8) #2
  %23 = zext nneg i8 %.1 to i32
  tail call void @avio_w8(ptr noundef %6, i32 noundef %23) #2
  tail call void @avio_w8(ptr noundef %6, i32 noundef 99) #2
  ret i32 0
}